(dp0
Vengine
p1
Vxelatex
p2
sVpackages
p3
c__builtin__
set
p4
((lp5
Vhyperref
p6
aVlayaureo
p7
aVxcolor
p8
aVtitlesec
p9
aVxunicode
p10
aVurl
p11
aVmarvosym
p12
aVfontspec
p13
aVsupertabular
p14
aVxltxtra
p15
aVtextpos
p16
aVparskip
p17
atp18
Rp19
sVfiles_with_guttermarks
p20
g4
((lp21
S'cv.tex'
p22
aV/Users/lijiaying/GitHub/lijiaying.github.io/cv/./cv.tex
p23
atp24
Rp25
sVsynctex
p26
I01
s.